Certificate:
    Data:
        Version: 3 (0x2)
        Serial Number: 1 (0x1)
        Signature Algorithm: sha256WithRSAEncryption
        Issuer: CN=QUIC Server Root CA
        Validity
            Not Before: Dec 10 23:04:58 2024 GMT
            Not After : Dec 13 23:04:58 2024 GMT
        Subject: C=US, ST=California, L=Mountain View, O=QUIC Server, CN=127.0.0.1
        Subject Public Key Info:
            Public Key Algorithm: rsaEncryption
                Public-Key: (2048 bit)
                Modulus:
                    00:bf:b8:fd:e3:8d:28:28:2b:f1:44:39:df:1c:2d:
                    9a:ca:16:cf:62:55:b3:12:05:66:c9:72:07:ec:39:
                    1d:9d:2c:fb:b1:f0:bf:37:22:ae:fd:f6:f1:2f:22:
                    5a:be:e0:c7:66:b8:91:b4:4f:6a:dd:c3:dd:17:be:
                    e3:0f:4d:bf:4b:f6:19:ec:e7:f0:b2:b6:b7:a7:52:
                    7f:83:6d:1a:b8:60:ba:35:02:0a:31:58:75:af:25:
                    5b:55:2f:c3:cc:50:c3:09:3c:bd:df:71:f1:44:a9:
                    00:94:14:33:28:ae:f9:8e:33:c7:03:d2:63:ba:2f:
                    01:d4:db:6a:fc:fd:0a:c7:8c:bd:35:98:27:72:08:
                    e4:89:01:09:91:ca:52:56:2f:4f:70:95:9a:20:f3:
                    5c:28:66:d3:aa:ee:75:8d:ab:e5:93:60:3e:78:63:
                    92:5f:37:fc:2c:1f:90:3d:5c:a1:b1:77:40:78:22:
                    b0:29:bd:5d:43:45:1f:f9:d3:a0:85:05:15:46:c1:
                    71:f9:2b:59:e0:56:fa:11:38:cb:e8:27:5e:7d:8f:
                    6d:30:e5:1a:07:76:55:e9:bb:b6:28:76:70:38:ae:
                    35:39:ba:4e:69:c5:77:f9:55:da:f8:7e:72:d2:da:
                    3f:c8:c3:63:df:67:b8:4e:f7:f6:76:c5:9e:7a:6a:
                    56:ed
                Exponent: 65537 (0x10001)
        X509v3 extensions:
            X509v3 Basic Constraints: critical
                CA:FALSE
            X509v3 Subject Key Identifier: 
                F9:B1:2C:4D:37:67:02:4C:69:87:B4:F7:0A:78:D6:13:48:B9:5F:2F
            X509v3 Authority Key Identifier: 
                1E:9E:C6:D7:A9:7F:64:A9:56:AC:F4:FD:FC:13:67:8A:18:E4:80:D3
            X509v3 Extended Key Usage: 
                TLS Web Server Authentication, TLS Web Client Authentication
            X509v3 Subject Alternative Name: 
                DNS:www.example.org, DNS:mail.example.org, DNS:mail.example.com, IP Address:127.0.0.1
    Signature Algorithm: sha256WithRSAEncryption
    Signature Value:
        4c:02:22:d7:25:31:7b:81:18:52:98:40:3f:54:5b:0c:7c:75:
        21:0c:42:dd:74:ce:0c:72:57:9a:d0:48:29:04:ef:c5:31:44:
        d4:06:ee:76:20:8f:87:83:4c:61:e1:96:5a:3a:98:39:77:fa:
        d6:be:d8:c7:a4:43:4a:cf:4a:05:dd:a9:5a:65:3b:8e:8c:e6:
        f2:a5:96:93:6e:cb:f5:fb:c8:3c:77:b6:3f:08:e7:15:8f:34:
        ad:c3:92:da:cd:4c:e1:a9:49:c5:e9:b2:01:6e:40:99:19:f8:
        a9:2d:33:27:ba:21:56:8a:6b:37:b6:d4:dd:ea:9f:69:e4:f2:
        e4:fc:54:89:d3:05:87:1c:32:2e:96:e5:bc:4b:0c:16:6e:73:
        05:2d:5a:85:43:f7:6c:52:94:7b:12:8b:fb:d7:64:51:93:fe:
        69:36:4b:bf:74:dc:2c:a7:c0:ef:12:a3:b1:a9:79:04:ee:45:
        01:60:19:70:d8:a3:27:5c:de:bd:ff:32:76:49:b0:b5:5a:2f:
        2f:4d:59:25:45:ea:12:65:32:ce:f3:ab:05:a4:7c:fc:1e:5f:
        bc:80:23:e3:8a:7d:b6:c3:d7:64:f7:4d:94:44:30:22:37:44:
        51:0c:d5:c8:a5:3f:75:6c:f6:fa:bb:1f:2d:0c:54:4e:6d:4f:
        bb:2e:b3:51
-----BEGIN CERTIFICATE-----
MIIDtDCCApygAwIBAgIBATANBgkqhkiG9w0BAQsFADAeMRwwGgYDVQQDDBNRVUlD
IFNlcnZlciBSb290IENBMB4XDTI0MTIxMDIzMDQ1OFoXDTI0MTIxMzIzMDQ1OFow
ZDELMAkGA1UEBhMCVVMxEzARBgNVBAgMCkNhbGlmb3JuaWExFjAUBgNVBAcMDU1v
dW50YWluIFZpZXcxFDASBgNVBAoMC1FVSUMgU2VydmVyMRIwEAYDVQQDDAkxMjcu
MC4wLjEwggEiMA0GCSqGSIb3DQEBAQUAA4IBDwAwggEKAoIBAQC/uP3jjSgoK/FE
Od8cLZrKFs9iVbMSBWbJcgfsOR2dLPux8L83Iq799vEvIlq+4MdmuJG0T2rdw90X
vuMPTb9L9hns5/CytrenUn+DbRq4YLo1AgoxWHWvJVtVL8PMUMMJPL3fcfFEqQCU
FDMorvmOM8cD0mO6LwHU22r8/QrHjL01mCdyCOSJAQmRylJWL09wlZog81woZtOq
7nWNq+WTYD54Y5JfN/wsH5A9XKGxd0B4IrApvV1DRR/506CFBRVGwXH5K1ngVvoR
OMvoJ159j20w5RoHdlXpu7YodnA4rjU5uk5pxXf5Vdr4fnLS2j/Iw2PfZ7hO9/Z2
xZ56albtAgMBAAGjgbYwgbMwDAYDVR0TAQH/BAIwADAdBgNVHQ4EFgQU+bEsTTdn
Akxph7T3CnjWE0i5Xy8wHwYDVR0jBBgwFoAUHp7G16l/ZKlWrPT9/BNnihjkgNMw
HQYDVR0lBBYwFAYIKwYBBQUHAwEGCCsGAQUFBwMCMEQGA1UdEQQ9MDuCD3d3dy5l
eGFtcGxlLm9yZ4IQbWFpbC5leGFtcGxlLm9yZ4IQbWFpbC5leGFtcGxlLmNvbYcE
fwAAATANBgkqhkiG9w0BAQsFAAOCAQEATAIi1yUxe4EYUphAP1RbDHx1IQxC3XTO
DHJXmtBIKQTvxTFE1AbudiCPh4NMYeGWWjqYOXf61r7Yx6RDSs9KBd2pWmU7jozm
8qWWk27L9fvIPHe2PwjnFY80rcOS2s1M4alJxemyAW5AmRn4qS0zJ7ohVoprN7bU
3eqfaeTy5PxUidMFhxwyLpblvEsMFm5zBS1ahUP3bFKUexKL+9dkUZP+aTZLv3Tc
LKfA7xKjsal5BO5FAWAZcNijJ1zevf8ydkmwtVovL01ZJUXqEmUyzvOrBaR8/B5f
vIAj44p9tsPXZPdNlEQwIjdEUQzVyKU/dWz2+rsfLQxUTm1Puy6zUQ==
-----END CERTIFICATE-----
