Certificate:
    Data:
        Version: 3 (0x2)
        Serial Number:
            57:1b:38:58:ae:b1:28:3a:75:84:10:84:64:a2:3c:f5:6a:e8:09:1d
        Signature Algorithm: sha256WithRSAEncryption
        Issuer: CN=QUIC Server Root CA
        Validity
            Not Before: Dec 10 23:04:52 2024 GMT
            Not After : Dec 13 23:04:52 2024 GMT
        Subject: CN=QUIC Server Root CA
        Subject Public Key Info:
            Public Key Algorithm: rsaEncryption
                Public-Key: (2048 bit)
                Modulus:
                    00:93:21:8d:17:1c:9c:b6:05:1e:f1:25:44:e6:d9:
                    6b:50:fc:3a:8e:4d:55:db:34:01:d3:dd:14:de:c5:
                    46:87:1b:18:6f:fc:83:e1:d7:9e:ca:66:db:df:27:
                    4b:2f:5d:69:62:af:ff:3b:e3:13:e5:e3:12:a7:c4:
                    b1:9f:a3:48:92:51:b1:38:6b:ac:9e:f5:66:5a:56:
                    ee:46:d7:32:fb:7b:ba:e0:85:fa:36:eb:8c:78:79:
                    cf:2c:eb:21:43:ee:93:df:ad:d8:c9:87:f5:04:c3:
                    69:65:4a:77:ea:bd:aa:e1:52:70:33:f9:75:41:9d:
                    df:dc:64:eb:fc:ef:84:34:c7:52:7e:cb:73:38:cc:
                    7c:2f:43:92:00:c4:35:4f:9e:bf:50:53:f8:13:3c:
                    6f:44:44:40:79:60:77:2d:a3:a0:1f:6a:21:21:29:
                    b4:6c:b4:bb:2e:45:14:47:5f:e0:a2:3d:ab:d5:1b:
                    33:0c:d3:d0:16:28:98:f0:7f:bc:61:8c:03:33:1e:
                    42:f4:b1:b5:4c:2b:a2:ec:b1:09:7d:d7:1a:af:1b:
                    fc:2c:44:b0:43:0c:16:86:f3:9e:d0:2d:ea:95:d8:
                    4c:64:2d:0a:15:98:5f:52:ee:79:e7:de:ed:a7:f5:
                    76:b7:f1:76:a6:ed:70:68:7e:a4:ec:f3:6b:ad:d4:
                    a7:a9
                Exponent: 65537 (0x10001)
        X509v3 extensions:
            X509v3 Basic Constraints: critical
                CA:TRUE
            X509v3 Subject Key Identifier: 
                1E:9E:C6:D7:A9:7F:64:A9:56:AC:F4:FD:FC:13:67:8A:18:E4:80:D3
            X509v3 Key Usage: critical
                Certificate Sign, CRL Sign
    Signature Algorithm: sha256WithRSAEncryption
    Signature Value:
        44:b6:79:5f:9f:c6:ed:61:ae:f7:6f:80:a4:a2:2c:0f:8b:d1:
        b6:4c:17:76:34:03:d7:81:f5:b8:a8:87:d0:42:d7:b4:8e:8e:
        37:b2:44:1f:5d:47:6e:68:aa:cc:5b:08:b8:b4:bc:37:b9:91:
        a2:d7:a9:48:6e:59:81:9d:8c:27:47:ce:1f:a7:cb:d8:8d:53:
        bc:95:82:01:e5:c2:d9:2b:21:b3:68:5f:f6:f0:39:3a:0e:9a:
        a6:f7:fb:e9:90:be:9f:89:76:0a:d5:42:54:9e:64:a2:ab:8e:
        fc:3d:43:99:af:9f:75:42:a9:53:e2:33:ed:54:23:b5:2d:57:
        73:c3:70:ca:14:25:b9:5e:32:c3:ea:75:8b:a7:4c:16:66:34:
        f6:b8:96:e4:a9:69:ff:aa:87:b0:1d:2f:2b:5d:ee:59:b0:9a:
        83:50:96:fe:e7:38:33:9e:75:f2:2a:cb:d7:cc:d5:5b:37:8c:
        70:c8:21:76:52:df:c9:27:ec:e0:4c:75:0d:69:74:9c:bd:07:
        b5:7e:21:f7:8d:84:6a:d3:48:9c:f4:c9:90:5d:36:df:05:10:
        12:8b:7f:dc:fd:4c:34:75:c9:58:66:d2:76:5e:42:0f:88:1e:
        38:bd:74:46:85:09:77:9a:1c:be:f3:3b:da:b4:13:fe:97:9b:
        38:2b:6a:bf
-----BEGIN CERTIFICATE-----
MIIDDDCCAfSgAwIBAgIUVxs4WK6xKDp1hBCEZKI89WroCR0wDQYJKoZIhvcNAQEL
BQAwHjEcMBoGA1UEAwwTUVVJQyBTZXJ2ZXIgUm9vdCBDQTAeFw0yNDEyMTAyMzA0
NTJaFw0yNDEyMTMyMzA0NTJaMB4xHDAaBgNVBAMME1FVSUMgU2VydmVyIFJvb3Qg
Q0EwggEiMA0GCSqGSIb3DQEBAQUAA4IBDwAwggEKAoIBAQCTIY0XHJy2BR7xJUTm
2WtQ/DqOTVXbNAHT3RTexUaHGxhv/IPh157KZtvfJ0svXWlir/874xPl4xKnxLGf
o0iSUbE4a6ye9WZaVu5G1zL7e7rghfo264x4ec8s6yFD7pPfrdjJh/UEw2llSnfq
varhUnAz+XVBnd/cZOv874Q0x1J+y3M4zHwvQ5IAxDVPnr9QU/gTPG9EREB5YHct
o6AfaiEhKbRstLsuRRRHX+CiPavVGzMM09AWKJjwf7xhjAMzHkL0sbVMK6LssQl9
1xqvG/wsRLBDDBaG857QLeqV2ExkLQoVmF9S7nnn3u2n9Xa38Xam7XBofqTs82ut
1KepAgMBAAGjQjBAMA8GA1UdEwEB/wQFMAMBAf8wHQYDVR0OBBYEFB6extepf2Sp
Vqz0/fwTZ4oY5IDTMA4GA1UdDwEB/wQEAwIBBjANBgkqhkiG9w0BAQsFAAOCAQEA
RLZ5X5/G7WGu92+ApKIsD4vRtkwXdjQD14H1uKiH0ELXtI6ON7JEH11HbmiqzFsI
uLS8N7mRotepSG5ZgZ2MJ0fOH6fL2I1TvJWCAeXC2Sshs2hf9vA5Og6apvf76ZC+
n4l2CtVCVJ5koquO/D1Dma+fdUKpU+Iz7VQjtS1Xc8NwyhQluV4yw+p1i6dMFmY0
9riW5Klp/6qHsB0vK13uWbCag1CW/uc4M5518irL18zVWzeMcMghdlLfySfs4Ex1
DWl0nL0HtX4h942EatNInPTJkF023wUQEot/3P1MNHXJWGbSdl5CD4geOL10RoUJ
d5ocvvM72rQT/pebOCtqvw==
-----END CERTIFICATE-----
